; Function Attrs: mustprogress nofree norecurse nosync nounwind willreturn memory(read, inaccessiblemem: none) uwtable
define i32 @b2World_GetAwakeBodyCount(i32 %0) local_unnamed_addr #11 {
  %2 = and i32 %0, 65535
  %3 = zext nneg i32 %2 to i64
  %4 = getelementptr %struct.b2World, ptr @b2_worlds, i64 %3
  %5 = getelementptr i8, ptr %4, i64 -720
  %.val = load ptr, ptr %5, align 16, !tbaa !94
  %6 = getelementptr inbounds nuw i8, ptr %.val, i64 184
  %7 = load i32, ptr %6, align 8, !tbaa !303
  ret i32 %7
}